(dp0
I256
cnumpy.core.multiarray
scalar
p1
(cnumpy
dtype
p2
(S'f8'
p3
I0
I1
tp4
Rp5
(I3
S'<'
p6
NNNI-1
I-1
I0
tp7
bS'?{g\xd9\x1a0\xb6?'
p8
tp9
Rp10
sI4
g10
sS'runtimes'
p11
(dp12
I256
F7429.362131999999
sI4
F7429.362131999999
ss.